target datalayout = "e-m:e-p270:32:32-p271:32:32-p272:64:64-i64:64-i128:128-f80:128-n8:16:32:64-S128"
target triple = "x86_64-unknown-linux-gnu"

%"class.icu_75::UnicodeString" = type { %"class.icu_75::Replaceable", %"union.icu_75::UnicodeString::StackBufferOrFields" }
%"class.icu_75::Replaceable" = type { %"class.icu_75::UObject" }
%"class.icu_75::UObject" = type { ptr }
%"union.icu_75::UnicodeString::StackBufferOrFields" = type { %struct.anon.0, [32 x i8] }
%struct.anon.0 = type { i16, i32, i32, ptr }
%"struct.icu_75::number::impl::ParsedPatternInfo::ParserState" = type <{ ptr, i32, [4 x i8] }>

; Function Attrs: mustprogress nounwind uwtable
define linkonce_odr noundef i32 @_ZNK6icu_7513UnicodeString14getShortLengthEv(ptr noundef nonnull align 8 dereferenceable(64) %this) #0 comdat align 2 {
entry:
  %this.addr = alloca ptr, align 8
  store ptr %this, ptr %this.addr, align 8
  %this1 = load ptr, ptr %this.addr, align 8
  %fUnion = getelementptr inbounds %"class.icu_75::UnicodeString", ptr %this1, i32 0, i32 1
  %fLengthAndFlags = getelementptr inbounds %struct.anon.0, ptr %fUnion, i32 0, i32 0
  %0 = load i16, ptr %fLengthAndFlags, align 8
  %conv = sext i16 %0 to i32
  %shr = ashr i32 %conv, 5
  ret i32 %shr
}

; Function Attrs: mustprogress nounwind uwtable
define linkonce_odr noundef signext i8 @_ZNK6icu_7513UnicodeString14hasShortLengthEv(ptr noundef nonnull align 8 dereferenceable(64) %this) #0 comdat align 2 {
entry:
  %this.addr = alloca ptr, align 8
  store ptr %this, ptr %this.addr, align 8
  %this1 = load ptr, ptr %this.addr, align 8
  %fUnion = getelementptr inbounds %"class.icu_75::UnicodeString", ptr %this1, i32 0, i32 1
  %fLengthAndFlags = getelementptr inbounds %struct.anon.0, ptr %fUnion, i32 0, i32 0
  %0 = load i16, ptr %fLengthAndFlags, align 8
  %conv = sext i16 %0 to i32
  %cmp = icmp sge i32 %conv, 0
  %conv2 = zext i1 %cmp to i8
  ret i8 %conv2
}

; Function Attrs: mustprogress uwtable
define linkonce_odr noundef i32 @_ZNK6icu_7513UnicodeString6lengthEv(ptr noundef nonnull align 8 dereferenceable(64) %this) #1 comdat align 2 {
entry:
  %this.addr = alloca ptr, align 8
  store ptr %this, ptr %this.addr, align 8
  %this1 = load ptr, ptr %this.addr, align 8
  %call = call noundef signext i8 @_ZNK6icu_7513UnicodeString14hasShortLengthEv(ptr noundef nonnull align 8 dereferenceable(64) %this1)
  %tobool = icmp ne i8 %call, 0
  br i1 %tobool, label %cond.true, label %cond.false

cond.true:                                        ; preds = %entry
  %call2 = call noundef i32 @_ZNK6icu_7513UnicodeString14getShortLengthEv(ptr noundef nonnull align 8 dereferenceable(64) %this1)
  br label %cond.end

cond.false:                                       ; preds = %entry
  %fUnion = getelementptr inbounds %"class.icu_75::UnicodeString", ptr %this1, i32 0, i32 1
  %fLength = getelementptr inbounds %struct.anon.0, ptr %fUnion, i32 0, i32 1
  %0 = load i32, ptr %fLength, align 4
  br label %cond.end

cond.end:                                         ; preds = %cond.false, %cond.true
  %cond = phi i32 [ %call2, %cond.true ], [ %0, %cond.false ]
  ret i32 %cond
}

; Function Attrs: mustprogress uwtable
define noundef i32 @_ZN6icu_756number4impl17ParsedPatternInfo11ParserState5peek2Ev(ptr noundef nonnull align 8 dereferenceable(12) %this) #1 align 2 {
entry:
  %retval = alloca i32, align 4
  %this.addr = alloca ptr, align 8
  %cp1 = alloca i32, align 4
  %offset2 = alloca i32, align 4
  store ptr %this, ptr %this.addr, align 8
  %this1 = load ptr, ptr %this.addr, align 8
  %offset = getelementptr inbounds %"struct.icu_75::number::impl::ParsedPatternInfo::ParserState", ptr %this1, i32 0, i32 1
  %0 = load i32, ptr %offset, align 8
  %pattern = getelementptr inbounds %"struct.icu_75::number::impl::ParsedPatternInfo::ParserState", ptr %this1, i32 0, i32 0
  %1 = load ptr, ptr %pattern, align 8
  %call = call noundef i32 @_ZNK6icu_7513UnicodeString6lengthEv(ptr noundef nonnull align 8 dereferenceable(64) %1)
  %cmp = icmp eq i32 %0, %call
  br i1 %cmp, label %if.then, label %if.end

if.then:                                          ; preds = %entry
  store i32 -1, ptr %retval, align 4
  br label %return

if.end:                                           ; preds = %entry
  %pattern2 = getelementptr inbounds %"struct.icu_75::number::impl::ParsedPatternInfo::ParserState", ptr %this1, i32 0, i32 0
  %2 = load ptr, ptr %pattern2, align 8
  %offset3 = getelementptr inbounds %"struct.icu_75::number::impl::ParsedPatternInfo::ParserState", ptr %this1, i32 0, i32 1
  %3 = load i32, ptr %offset3, align 8
  %call4 = call noundef i32 @_ZNK6icu_7513UnicodeString8char32AtEi(ptr noundef nonnull align 8 dereferenceable(64) %2, i32 noundef %3)
  store i32 %call4, ptr %cp1, align 4
  %offset5 = getelementptr inbounds %"struct.icu_75::number::impl::ParsedPatternInfo::ParserState", ptr %this1, i32 0, i32 1
  %4 = load i32, ptr %offset5, align 8
  %5 = load i32, ptr %cp1, align 4
  %cmp6 = icmp ule i32 %5, 65535
  %cond = select i1 %cmp6, i32 1, i32 2
  %add = add nsw i32 %4, %cond
  store i32 %add, ptr %offset2, align 4
  %6 = load i32, ptr %offset2, align 4
  %pattern7 = getelementptr inbounds %"struct.icu_75::number::impl::ParsedPatternInfo::ParserState", ptr %this1, i32 0, i32 0
  %7 = load ptr, ptr %pattern7, align 8
  %call8 = call noundef i32 @_ZNK6icu_7513UnicodeString6lengthEv(ptr noundef nonnull align 8 dereferenceable(64) %7)
  %cmp9 = icmp eq i32 %6, %call8
  br i1 %cmp9, label %if.then10, label %if.end11

if.then10:                                        ; preds = %if.end
  store i32 -1, ptr %retval, align 4
  br label %return

if.end11:                                         ; preds = %if.end
  %pattern12 = getelementptr inbounds %"struct.icu_75::number::impl::ParsedPatternInfo::ParserState", ptr %this1, i32 0, i32 0
  %8 = load ptr, ptr %pattern12, align 8
  %9 = load i32, ptr %offset2, align 4
  %call13 = call noundef i32 @_ZNK6icu_7513UnicodeString8char32AtEi(ptr noundef nonnull align 8 dereferenceable(64) %8, i32 noundef %9)
  store i32 %call13, ptr %retval, align 4
  br label %return

return:                                           ; preds = %if.end11, %if.then10, %if.then
  %10 = load i32, ptr %retval, align 4
  ret i32 %10
}