; Function Attrs: mustprogress uwtable
define noundef i32 @_ZN6icu_756number4impl17ParsedPatternInfo11ParserState5peek2Ev(ptr nocapture noundef nonnull readonly align 8 dereferenceable(12) %this) local_unnamed_addr #1 align 2 {
entry:
  %offset = getelementptr inbounds i8, ptr %this, i64 8
  %0 = load i32, ptr %offset, align 8
  %1 = load ptr, ptr %this, align 8
  %fUnion.i.i = getelementptr inbounds i8, ptr %1, i64 8
  %2 = load i16, ptr %fUnion.i.i, align 8
  %cmp.i.i = icmp slt i16 %2, 0
  %3 = ashr i16 %2, 5
  %shr.i.i = sext i16 %3 to i32
  %fLength.i = getelementptr inbounds i8, ptr %1, i64 12
  %4 = load i32, ptr %fLength.i, align 4
  %cond.i = select i1 %cmp.i.i, i32 %4, i32 %shr.i.i
  %cmp = icmp eq i32 %0, %cond.i
  br i1 %cmp, label %return, label %if.end

if.end:                                           ; preds = %entry
  %call4 = tail call noundef i32 @_ZNK6icu_7513UnicodeString8char32AtEi(ptr noundef nonnull align 8 dereferenceable(64) %1, i32 noundef %0)
  %5 = load i32, ptr %offset, align 8
  %cmp6 = icmp ult i32 %call4, 65536
  %cond = select i1 %cmp6, i32 1, i32 2
  %add = add nsw i32 %cond, %5
  %6 = load ptr, ptr %this, align 8
  %fUnion.i.i2 = getelementptr inbounds i8, ptr %6, i64 8
  %7 = load i16, ptr %fUnion.i.i2, align 8
  %cmp.i.i3 = icmp slt i16 %7, 0
  %8 = ashr i16 %7, 5
  %shr.i.i4 = sext i16 %8 to i32
  %fLength.i5 = getelementptr inbounds i8, ptr %6, i64 12
  %9 = load i32, ptr %fLength.i5, align 4
  %cond.i6 = select i1 %cmp.i.i3, i32 %9, i32 %shr.i.i4
  %cmp9 = icmp eq i32 %add, %cond.i6
  br i1 %cmp9, label %return, label %if.end11

if.end11:                                         ; preds = %if.end
  %call13 = tail call noundef i32 @_ZNK6icu_7513UnicodeString8char32AtEi(ptr noundef nonnull align 8 dereferenceable(64) %6, i32 noundef %add)
  br label %return

return:                                           ; preds = %if.end, %entry, %if.end11
  %retval.0 = phi i32 [ %call13, %if.end11 ], [ -1, %entry ], [ -1, %if.end ]
  ret i32 %retval.0
}